target datalayout = "e-m:e-p270:32:32-p271:32:32-p272:64:64-i64:64-i128:128-f80:128-n8:16:32:64-S128"
target triple = "x86_64-pc-linux-gnu"

%"class.cv::utils::trace::details::Region" = type <{ ptr, i32, [4 x i8] }>

; Function Attrs: mustprogress uwtable
define void @_ZN2cv3SVD7computeERKNS_11_InputArrayERKNS_12_OutputArrayEi(ptr noundef nonnull align 8 dereferenceable(24) %0, ptr noundef nonnull align 8 dereferenceable(24) %1, i32 noundef %2) #0 align 2 personality ptr @__gxx_personality_v0 {
  %4 = alloca ptr, align 8
  %5 = alloca ptr, align 8
  %6 = alloca i32, align 4
  %7 = alloca %"class.cv::utils::trace::details::Region", align 8
  %8 = alloca ptr, align 8
  %9 = alloca i32, align 4
  store ptr %0, ptr %4, align 8, !tbaa !82
  store ptr %1, ptr %5, align 8, !tbaa !114
  store i32 %2, ptr %6, align 4, !tbaa !10
  call void @llvm.lifetime.start.p0(i64 16, ptr %7) #14
  call void @_ZN2cv5utils5trace7details6RegionC1ERKNS3_21LocationStaticStorageE(ptr noundef nonnull align 8 dereferenceable(12) %7, ptr noundef nonnull align 8 dereferenceable(32) @_ZZN2cv3SVD7computeERKNS_11_InputArrayERKNS_12_OutputArrayEiE26__cv_trace_location_fn1489)
  %10 = load ptr, ptr %4, align 8, !tbaa !82
  %11 = load ptr, ptr %5, align 8, !tbaa !114
  %12 = invoke noundef nonnull align 8 dereferenceable(24) ptr @_ZN2cv7noArrayEv()
          to label %13 unwind label %18

13:                                               ; preds = %3
  %14 = invoke noundef nonnull align 8 dereferenceable(24) ptr @_ZN2cv7noArrayEv()
          to label %15 unwind label %18

15:                                               ; preds = %13
  %16 = load i32, ptr %6, align 4, !tbaa !10
  invoke void @_ZN2cvL11_SVDcomputeERKNS_11_InputArrayERKNS_12_OutputArrayES5_S5_i(ptr noundef nonnull align 8 dereferenceable(24) %10, ptr noundef nonnull align 8 dereferenceable(24) %11, ptr noundef nonnull align 8 dereferenceable(24) %12, ptr noundef nonnull align 8 dereferenceable(24) %14, i32 noundef %16)
          to label %17 unwind label %18

17:                                               ; preds = %15
  call void @_ZN2cv5utils5trace7details6RegionD2Ev(ptr noundef nonnull align 8 dereferenceable(12) %7) #14
  call void @llvm.lifetime.end.p0(i64 16, ptr %7) #14
  ret void

18:                                               ; preds = %15, %13, %3
  %19 = landingpad { ptr, i32 }
          cleanup
  %20 = extractvalue { ptr, i32 } %19, 0
  store ptr %20, ptr %8, align 8
  %21 = extractvalue { ptr, i32 } %19, 1
  store i32 %21, ptr %9, align 4
  call void @_ZN2cv5utils5trace7details6RegionD2Ev(ptr noundef nonnull align 8 dereferenceable(12) %7) #14
  call void @llvm.lifetime.end.p0(i64 16, ptr %7) #14
  br label %22

22:                                               ; preds = %18
  %23 = load ptr, ptr %8, align 8
  %24 = load i32, ptr %9, align 4
  %25 = insertvalue { ptr, i32 } poison, ptr %23, 0
  %26 = insertvalue { ptr, i32 } %25, i32 %24, 1
  resume { ptr, i32 } %26
}